; ModuleID = '41/743.cpp'
source_filename = "41/743.cpp"
target datalayout = "e-m:e-p270:32:32-p271:32:32-p272:64:64-i64:64-f80:128-n8:16:32:64-S128"
target triple = "x86_64-pc-linux-gnu"

%"class.std::ios_base::Init" = type { i8 }
%"class.std::basic_ostream" = type { i32 (...)**, %"class.std::basic_ios" }
%"class.std::basic_ios" = type { %"class.std::ios_base", %"class.std::basic_ostream"*, i8, i8, %"class.std::basic_streambuf"*, %"class.std::ctype"*, %"class.std::num_put"*, %"class.std::num_get"* }
%"class.std::ios_base" = type { i32 (...)**, i64, i64, i32, i32, i32, %"struct.std::ios_base::_Callback_list"*, %"struct.std::ios_base::_Words", [8 x %"struct.std::ios_base::_Words"], i32, %"struct.std::ios_base::_Words"*, %"class.std::locale" }
%"struct.std::ios_base::_Callback_list" = type { %"struct.std::ios_base::_Callback_list"*, void (i32, %"class.std::ios_base"*, i32)*, i32, i32 }
%"struct.std::ios_base::_Words" = type { i8*, i64 }
%"class.std::locale" = type { %"class.std::locale::_Impl"* }
%"class.std::locale::_Impl" = type { i32, %"class.std::locale::facet"**, i64, %"class.std::locale::facet"**, i8** }
%"class.std::locale::facet" = type <{ i32 (...)**, i32, [4 x i8] }>
%"class.std::basic_streambuf" = type { i32 (...)**, i8*, i8*, i8*, i8*, i8*, i8*, %"class.std::locale" }
%"class.std::ctype" = type <{ %"class.std::locale::facet.base", [4 x i8], %struct.__locale_struct*, i8, [7 x i8], i32*, i32*, i16*, i8, [256 x i8], [256 x i8], i8, [6 x i8] }>
%"class.std::locale::facet.base" = type <{ i32 (...)**, i32 }>
%struct.__locale_struct = type { [13 x %struct.__locale_data*], i16*, i32*, i32*, [13 x i8*] }
%struct.__locale_data = type opaque
%"class.std::num_put" = type { %"class.std::locale::facet.base", [4 x i8] }
%"class.std::num_get" = type { %"class.std::locale::facet.base", [4 x i8] }

@_ZStL8__ioinit = internal global %"class.std::ios_base::Init" zeroinitializer, align 1
@__dso_handle = external hidden global i8
@_ZSt4cout = external dso_local global %"class.std::basic_ostream", align 8
@.str = private unnamed_addr constant [2 x i8] c" \00", align 1
@llvm.global_ctors = appending global [1 x { i32, void ()*, i8* }] [{ i32, void ()*, i8* } { i32 65535, void ()* @_GLOBAL__sub_I_743.cpp, i8* null }]

; Function Attrs: noinline uwtable
define internal void @__cxx_global_var_init() #0 section ".text.startup" {
  call void @_ZNSt8ios_base4InitC1Ev(%"class.std::ios_base::Init"* @_ZStL8__ioinit)
  %1 = call i32 @__cxa_atexit(void (i8*)* bitcast (void (%"class.std::ios_base::Init"*)* @_ZNSt8ios_base4InitD1Ev to void (i8*)*), i8* getelementptr inbounds (%"class.std::ios_base::Init", %"class.std::ios_base::Init"* @_ZStL8__ioinit, i32 0, i32 0), i8* @__dso_handle) #3
  ret void
}

declare dso_local void @_ZNSt8ios_base4InitC1Ev(%"class.std::ios_base::Init"*) unnamed_addr #1

; Function Attrs: nounwind
declare dso_local void @_ZNSt8ios_base4InitD1Ev(%"class.std::ios_base::Init"*) unnamed_addr #2

; Function Attrs: nounwind
declare dso_local i32 @__cxa_atexit(void (i8*)*, i8*, i8*) #3

; Function Attrs: noinline norecurse uwtable
define dso_local i32 @main() #4 {
  %1 = alloca i32, align 4
  %2 = alloca i32, align 4
  %3 = alloca i32, align 4
  %4 = alloca i32, align 4
  %5 = alloca i32, align 4
  %6 = alloca i32, align 4
  store i32 0, i32* %1, align 4
  store i32 1, i32* %2, align 4
  br label %7

7:                                                ; preds = %133, %0
  %8 = load i32, i32* %2, align 4
  %9 = icmp sle i32 %8, 5
  br i1 %9, label %10, label %136

10:                                               ; preds = %7
  store i32 1, i32* %3, align 4
  br label %11

11:                                               ; preds = %129, %10
  %12 = load i32, i32* %3, align 4
  %13 = icmp sle i32 %12, 5
  br i1 %13, label %14, label %132

14:                                               ; preds = %11
  %15 = load i32, i32* %3, align 4
  %16 = load i32, i32* %2, align 4
  %17 = icmp eq i32 %15, %16
  br i1 %17, label %18, label %19

18:                                               ; preds = %14
  br label %129

19:                                               ; preds = %14
  store i32 1, i32* %4, align 4
  br label %20

20:                                               ; preds = %125, %19
  %21 = load i32, i32* %4, align 4
  %22 = icmp sle i32 %21, 5
  br i1 %22, label %23, label %128

23:                                               ; preds = %20
  %24 = load i32, i32* %4, align 4
  %25 = load i32, i32* %2, align 4
  %26 = icmp eq i32 %24, %25
  br i1 %26, label %31, label %27

27:                                               ; preds = %23
  %28 = load i32, i32* %4, align 4
  %29 = load i32, i32* %3, align 4
  %30 = icmp eq i32 %28, %29
  br i1 %30, label %31, label %32

31:                                               ; preds = %27, %23
  br label %125

32:                                               ; preds = %27
  store i32 1, i32* %5, align 4
  br label %33

33:                                               ; preds = %121, %32
  %34 = load i32, i32* %5, align 4
  %35 = icmp sle i32 %34, 5
  br i1 %35, label %36, label %124

36:                                               ; preds = %33
  %37 = load i32, i32* %5, align 4
  %38 = load i32, i32* %2, align 4
  %39 = icmp eq i32 %37, %38
  br i1 %39, label %48, label %40

40:                                               ; preds = %36
  %41 = load i32, i32* %5, align 4
  %42 = load i32, i32* %3, align 4
  %43 = icmp eq i32 %41, %42
  br i1 %43, label %48, label %44

44:                                               ; preds = %40
  %45 = load i32, i32* %5, align 4
  %46 = load i32, i32* %4, align 4
  %47 = icmp eq i32 %45, %46
  br i1 %47, label %48, label %49

48:                                               ; preds = %44, %40, %36
  br label %121

49:                                               ; preds = %44
  store i32 1, i32* %6, align 4
  br label %50

50:                                               ; preds = %117, %49
  %51 = load i32, i32* %6, align 4
  %52 = icmp sle i32 %51, 5
  br i1 %52, label %53, label %120

53:                                               ; preds = %50
  %54 = load i32, i32* %6, align 4
  %55 = load i32, i32* %2, align 4
  %56 = icmp eq i32 %54, %55
  br i1 %56, label %75, label %57

57:                                               ; preds = %53
  %58 = load i32, i32* %6, align 4
  %59 = load i32, i32* %3, align 4
  %60 = icmp eq i32 %58, %59
  br i1 %60, label %75, label %61

61:                                               ; preds = %57
  %62 = load i32, i32* %6, align 4
  %63 = load i32, i32* %4, align 4
  %64 = icmp eq i32 %62, %63
  br i1 %64, label %75, label %65

65:                                               ; preds = %61
  %66 = load i32, i32* %6, align 4
  %67 = load i32, i32* %5, align 4
  %68 = icmp eq i32 %66, %67
  br i1 %68, label %75, label %69

69:                                               ; preds = %65
  %70 = load i32, i32* %6, align 4
  %71 = icmp eq i32 %70, 2
  br i1 %71, label %75, label %72

72:                                               ; preds = %69
  %73 = load i32, i32* %6, align 4
  %74 = icmp eq i32 %73, 3
  br i1 %74, label %75, label %76

75:                                               ; preds = %72, %69, %65, %61, %57, %53
  br label %117

76:                                               ; preds = %72
  %77 = load i32, i32* %6, align 4
  %78 = icmp ne i32 %77, 1
  br i1 %78, label %79, label %116

79:                                               ; preds = %76
  %80 = load i32, i32* %5, align 4
  %81 = icmp ne i32 %80, 1
  br i1 %81, label %82, label %116

82:                                               ; preds = %79
  %83 = load i32, i32* %2, align 4
  %84 = icmp ne i32 %83, 1
  br i1 %84, label %85, label %116

85:                                               ; preds = %82
  %86 = load i32, i32* %2, align 4
  %87 = icmp ne i32 %86, 2
  br i1 %87, label %88, label %116

88:                                               ; preds = %85
  %89 = load i32, i32* %3, align 4
  %90 = icmp ne i32 %89, 1
  br i1 %90, label %91, label %116

91:                                               ; preds = %88
  %92 = load i32, i32* %4, align 4
  %93 = icmp eq i32 %92, 1
  br i1 %93, label %94, label %116

94:                                               ; preds = %91
  %95 = load i32, i32* %2, align 4
  %96 = icmp eq i32 %95, 5
  br i1 %96, label %97, label %116

97:                                               ; preds = %94
  %98 = load i32, i32* %5, align 4
  %99 = icmp ne i32 %98, 2
  br i1 %99, label %100, label %116

100:                                              ; preds = %97
  %101 = load i32, i32* %2, align 4
  %102 = call dereferenceable(272) %"class.std::basic_ostream"* @_ZNSolsEi(%"class.std::basic_ostream"* @_ZSt4cout, i32 %101)
  %103 = call dereferenceable(272) %"class.std::basic_ostream"* @_ZStlsISt11char_traitsIcEERSt13basic_ostreamIcT_ES5_PKc(%"class.std::basic_ostream"* dereferenceable(272) %102, i8* getelementptr inbounds ([2 x i8], [2 x i8]* @.str, i64 0, i64 0))
  %104 = load i32, i32* %3, align 4
  %105 = call dereferenceable(272) %"class.std::basic_ostream"* @_ZNSolsEi(%"class.std::basic_ostream"* %103, i32 %104)
  %106 = call dereferenceable(272) %"class.std::basic_ostream"* @_ZStlsISt11char_traitsIcEERSt13basic_ostreamIcT_ES5_PKc(%"class.std::basic_ostream"* dereferenceable(272) %105, i8* getelementptr inbounds ([2 x i8], [2 x i8]* @.str, i64 0, i64 0))
  %107 = load i32, i32* %4, align 4
  %108 = call dereferenceable(272) %"class.std::basic_ostream"* @_ZNSolsEi(%"class.std::basic_ostream"* %106, i32 %107)
  %109 = call dereferenceable(272) %"class.std::basic_ostream"* @_ZStlsISt11char_traitsIcEERSt13basic_ostreamIcT_ES5_PKc(%"class.std::basic_ostream"* dereferenceable(272) %108, i8* getelementptr inbounds ([2 x i8], [2 x i8]* @.str, i64 0, i64 0))
  %110 = load i32, i32* %5, align 4
  %111 = call dereferenceable(272) %"class.std::basic_ostream"* @_ZNSolsEi(%"class.std::basic_ostream"* %109, i32 %110)
  %112 = call dereferenceable(272) %"class.std::basic_ostream"* @_ZStlsISt11char_traitsIcEERSt13basic_ostreamIcT_ES5_PKc(%"class.std::basic_ostream"* dereferenceable(272) %111, i8* getelementptr inbounds ([2 x i8], [2 x i8]* @.str, i64 0, i64 0))
  %113 = load i32, i32* %6, align 4
  %114 = call dereferenceable(272) %"class.std::basic_ostream"* @_ZNSolsEi(%"class.std::basic_ostream"* %112, i32 %113)
  %115 = call dereferenceable(272) %"class.std::basic_ostream"* @_ZNSolsEPFRSoS_E(%"class.std::basic_ostream"* %114, %"class.std::basic_ostream"* (%"class.std::basic_ostream"*)* @_ZSt4endlIcSt11char_traitsIcEERSt13basic_ostreamIT_T0_ES6_)
  br label %116

116:                                              ; preds = %100, %97, %94, %91, %88, %85, %82, %79, %76
  br label %117

117:                                              ; preds = %116, %75
  %118 = load i32, i32* %6, align 4
  %119 = add nsw i32 %118, 1
  store i32 %119, i32* %6, align 4
  br label %50

120:                                              ; preds = %50
  br label %121

121:                                              ; preds = %120, %48
  %122 = load i32, i32* %5, align 4
  %123 = add nsw i32 %122, 1
  store i32 %123, i32* %5, align 4
  br label %33

124:                                              ; preds = %33
  br label %125

125:                                              ; preds = %124, %31
  %126 = load i32, i32* %4, align 4
  %127 = add nsw i32 %126, 1
  store i32 %127, i32* %4, align 4
  br label %20

128:                                              ; preds = %20
  br label %129

129:                                              ; preds = %128, %18
  %130 = load i32, i32* %3, align 4
  %131 = add nsw i32 %130, 1
  store i32 %131, i32* %3, align 4
  br label %11

132:                                              ; preds = %11
  br label %133

133:                                              ; preds = %132
  %134 = load i32, i32* %2, align 4
  %135 = add nsw i32 %134, 1
  store i32 %135, i32* %2, align 4
  br label %7

136:                                              ; preds = %7
  ret i32 0
}

declare dso_local dereferenceable(272) %"class.std::basic_ostream"* @_ZStlsISt11char_traitsIcEERSt13basic_ostreamIcT_ES5_PKc(%"class.std::basic_ostream"* dereferenceable(272), i8*) #1

declare dso_local dereferenceable(272) %"class.std::basic_ostream"* @_ZNSolsEi(%"class.std::basic_ostream"*, i32) #1

declare dso_local dereferenceable(272) %"class.std::basic_ostream"* @_ZNSolsEPFRSoS_E(%"class.std::basic_ostream"*, %"class.std::basic_ostream"* (%"class.std::basic_ostream"*)*) #1

declare dso_local dereferenceable(272) %"class.std::basic_ostream"* @_ZSt4endlIcSt11char_traitsIcEERSt13basic_ostreamIT_T0_ES6_(%"class.std::basic_ostream"* dereferenceable(272)) #1

; Function Attrs: noinline uwtable
define internal void @_GLOBAL__sub_I_743.cpp() #0 section ".text.startup" {
  call void @__cxx_global_var_init()
  ret void
}


!llvm.module.flags = !{!0}
!llvm.ident = !{!1}

!0 = !{i32 1, !"wchar_size", i32 4}
!1 = !{!"clang version 10.0.0-4ubuntu1 "}
